target datalayout = "e-m:e-p270:32:32-p271:32:32-p272:64:64-i64:64-i128:128-f80:128-n8:16:32:64-S128"
target triple = "x86_64-unknown-linux-gnu"

%"class.std::error_code" = type { i32, ptr }

; Function Attrs: mustprogress nounwind uwtable
define linkonce_odr void @_ZNSt10error_codeC2Ev(ptr noundef nonnull align 8 dereferenceable(16) %this) unnamed_addr #0 comdat align 2 {
entry:
  %this.addr = alloca ptr, align 8
  store ptr %this, ptr %this.addr, align 8
  %this1 = load ptr, ptr %this.addr, align 8
  %_M_value = getelementptr inbounds %"class.std::error_code", ptr %this1, i32 0, i32 0
  store i32 0, ptr %_M_value, align 8
  %_M_cat = getelementptr inbounds %"class.std::error_code", ptr %this1, i32 0, i32 1
  %call = call noundef nonnull align 8 dereferenceable(8) ptr @_ZNSt3_V215system_categoryEv() #13
  store ptr %call, ptr %_M_cat, align 8
  ret void
}

; Function Attrs: mustprogress nounwind uwtable
define linkonce_odr void @_ZNSt10error_codeC2EiRKNSt3_V214error_categoryE(ptr noundef nonnull align 8 dereferenceable(16) %this, i32 noundef %__v, ptr noundef nonnull align 8 dereferenceable(8) %__cat) unnamed_addr #0 comdat align 2 {
entry:
  %this.addr = alloca ptr, align 8
  %__v.addr = alloca i32, align 4
  %__cat.addr = alloca ptr, align 8
  store ptr %this, ptr %this.addr, align 8
  store i32 %__v, ptr %__v.addr, align 4
  store ptr %__cat, ptr %__cat.addr, align 8
  %this1 = load ptr, ptr %this.addr, align 8
  %_M_value = getelementptr inbounds %"class.std::error_code", ptr %this1, i32 0, i32 0
  %0 = load i32, ptr %__v.addr, align 4
  store i32 %0, ptr %_M_value, align 8
  %_M_cat = getelementptr inbounds %"class.std::error_code", ptr %this1, i32 0, i32 1
  %1 = load ptr, ptr %__cat.addr, align 8
  store ptr %1, ptr %_M_cat, align 8
  ret void
}

; Function Attrs: mustprogress nounwind uwtable
define internal { i32, ptr } @_ZN4llvh3sys2fsL18copy_file_internalEii(i32 noundef %ReadFD, i32 noundef %WriteFD) #0 {
entry:
  %retval = alloca %"class.std::error_code", align 8
  %ReadFD.addr = alloca i32, align 4
  %WriteFD.addr = alloca i32, align 4
  %BufSize = alloca i64, align 8
  %Buf = alloca ptr, align 8
  %BytesRead = alloca i32, align 4
  %BytesWritten = alloca i32, align 4
  store i32 %ReadFD, ptr %ReadFD.addr, align 4
  store i32 %WriteFD, ptr %WriteFD.addr, align 4
  store i64 4096, ptr %BufSize, align 8
  %call = call noalias noundef nonnull ptr @_Znam(i64 noundef 4096) #14
  store ptr %call, ptr %Buf, align 8
  store i32 0, ptr %BytesRead, align 4
  store i32 0, ptr %BytesWritten, align 4
  br label %for.cond

for.cond:                                         ; preds = %if.end10, %entry
  %0 = load i32, ptr %ReadFD.addr, align 4
  %1 = load ptr, ptr %Buf, align 8
  %call1 = call i64 @read(i32 noundef %0, ptr noundef %1, i64 noundef 4096)
  %conv = trunc i64 %call1 to i32
  store i32 %conv, ptr %BytesRead, align 4
  %2 = load i32, ptr %BytesRead, align 4
  %cmp = icmp sle i32 %2, 0
  br i1 %cmp, label %if.then, label %if.end

if.then:                                          ; preds = %for.cond
  br label %for.end

if.end:                                           ; preds = %for.cond
  br label %while.cond

while.cond:                                       ; preds = %if.end7, %if.end
  %3 = load i32, ptr %BytesRead, align 4
  %tobool = icmp ne i32 %3, 0
  br i1 %tobool, label %while.body, label %while.end

while.body:                                       ; preds = %while.cond
  %4 = load i32, ptr %WriteFD.addr, align 4
  %5 = load ptr, ptr %Buf, align 8
  %6 = load i32, ptr %BytesRead, align 4
  %conv2 = sext i32 %6 to i64
  %call3 = call i64 @write(i32 noundef %4, ptr noundef %5, i64 noundef %conv2)
  %conv4 = trunc i64 %call3 to i32
  store i32 %conv4, ptr %BytesWritten, align 4
  %7 = load i32, ptr %BytesWritten, align 4
  %cmp5 = icmp slt i32 %7, 0
  br i1 %cmp5, label %if.then6, label %if.end7

if.then6:                                         ; preds = %while.body
  br label %while.end

if.end7:                                          ; preds = %while.body
  %8 = load i32, ptr %BytesWritten, align 4
  %9 = load i32, ptr %BytesRead, align 4
  %sub = sub nsw i32 %9, %8
  store i32 %sub, ptr %BytesRead, align 4
  br label %while.cond, !llvm.loop !17

while.end:                                        ; preds = %if.then6, %while.cond
  %10 = load i32, ptr %BytesWritten, align 4
  %cmp8 = icmp slt i32 %10, 0
  br i1 %cmp8, label %if.then9, label %if.end10

if.then9:                                         ; preds = %while.end
  br label %for.end

if.end10:                                         ; preds = %while.end
  br label %for.cond, !llvm.loop !18

for.end:                                          ; preds = %if.then9, %if.then
  %11 = load ptr, ptr %Buf, align 8
  %isnull = icmp eq ptr %11, null
  br i1 %isnull, label %delete.end, label %delete.notnull

delete.notnull:                                   ; preds = %for.end
  call void @_ZdaPv(ptr noundef %11) #15
  br label %delete.end

delete.end:                                       ; preds = %delete.notnull, %for.end
  %12 = load i32, ptr %BytesRead, align 4
  %cmp11 = icmp slt i32 %12, 0
  br i1 %cmp11, label %if.then13, label %lor.lhs.false

lor.lhs.false:                                    ; preds = %delete.end
  %13 = load i32, ptr %BytesWritten, align 4
  %cmp12 = icmp slt i32 %13, 0
  br i1 %cmp12, label %if.then13, label %if.end16

if.then13:                                        ; preds = %lor.lhs.false, %delete.end
  %call14 = call ptr @__errno_location() #13
  %14 = load i32, ptr %call14, align 4
  %call15 = call noundef nonnull align 8 dereferenceable(8) ptr @_ZNSt3_V216generic_categoryEv() #13
  call void @_ZNSt10error_codeC2EiRKNSt3_V214error_categoryE(ptr noundef nonnull align 8 dereferenceable(16) %retval, i32 noundef %14, ptr noundef nonnull align 8 dereferenceable(8) %call15) #9
  br label %return

if.end16:                                         ; preds = %lor.lhs.false
  call void @_ZNSt10error_codeC2Ev(ptr noundef nonnull align 8 dereferenceable(16) %retval) #9
  br label %return

return:                                           ; preds = %if.end16, %if.then13
  %15 = load { i32, ptr }, ptr %retval, align 8
  ret { i32, ptr } %15
}