; Function Attrs: mustprogress nounwind uwtable
define internal fastcc { i32, ptr } @_ZN4llvh3sys2fsL18copy_file_internalEii(i32 noundef %ReadFD, i32 noundef %WriteFD) unnamed_addr #0 {
entry:
  %call = tail call noalias noundef nonnull dereferenceable(4096) ptr @_Znam(i64 noundef 4096) #31
  %call119 = tail call i64 @read(i32 noundef %ReadFD, ptr noundef nonnull %call, i64 noundef 4096) #29
  %conv20 = trunc i64 %call119 to i32
  %cmp21 = icmp sgt i32 %conv20, 0
  br i1 %cmp21, label %while.body, label %delete.notnull

for.cond.loopexit:                                ; preds = %if.end7
  %call1 = tail call i64 @read(i32 noundef %ReadFD, ptr noundef nonnull %call, i64 noundef 4096) #29
  %conv = trunc i64 %call1 to i32
  %cmp = icmp sgt i32 %conv, 0
  br i1 %cmp, label %while.body.backedge, label %delete.notnull

while.body:                                       ; preds = %entry, %while.body.backedge
  %BytesRead.018 = phi i32 [ %BytesRead.018.be, %while.body.backedge ], [ %conv20, %entry ]
  %conv2 = sext i32 %BytesRead.018 to i64
  %call3 = tail call i64 @write(i32 noundef %WriteFD, ptr noundef nonnull %call, i64 noundef %conv2) #29
  %conv4 = trunc i64 %call3 to i32
  %cmp5 = icmp slt i32 %conv4, 0
  br i1 %cmp5, label %delete.notnull.thread, label %if.end7

delete.notnull.thread:                            ; preds = %while.body
  tail call void @_ZdaPv(ptr noundef nonnull %call) #32
  br label %if.then13

if.end7:                                          ; preds = %while.body
  %sub = sub nsw i32 %BytesRead.018, %conv4
  %tobool.not = icmp eq i32 %sub, 0
  br i1 %tobool.not, label %for.cond.loopexit, label %while.body.backedge

while.body.backedge:                              ; preds = %if.end7, %for.cond.loopexit
  %BytesRead.018.be = phi i32 [ %sub, %if.end7 ], [ %conv, %for.cond.loopexit ]
  br label %while.body, !llvm.loop !74

delete.notnull:                                   ; preds = %for.cond.loopexit, %entry
  %BytesRead.1 = phi i32 [ %conv20, %entry ], [ %conv, %for.cond.loopexit ]
  tail call void @_ZdaPv(ptr noundef nonnull %call) #32
  %cmp11 = icmp slt i32 %BytesRead.1, 0
  br i1 %cmp11, label %if.then13, label %if.end16

if.then13:                                        ; preds = %delete.notnull.thread, %delete.notnull
  %call14 = tail call ptr @__errno_location() #30
  %0 = load i32, ptr %call14, align 4
  %call15 = tail call noundef nonnull align 8 dereferenceable(8) ptr @_ZNSt3_V216generic_categoryEv() #30
  br label %return

if.end16:                                         ; preds = %delete.notnull
  %call.i = tail call noundef nonnull align 8 dereferenceable(8) ptr @_ZNSt3_V215system_categoryEv() #30
  br label %return

return:                                           ; preds = %if.end16, %if.then13
  %retval.sroa.3.0 = phi ptr [ %call15, %if.then13 ], [ %call.i, %if.end16 ]
  %retval.sroa.0.0 = phi i32 [ %0, %if.then13 ], [ 0, %if.end16 ]
  %.fca.0.insert = insertvalue { i32, ptr } poison, i32 %retval.sroa.0.0, 0
  %.fca.1.insert = insertvalue { i32, ptr } %.fca.0.insert, ptr %retval.sroa.3.0, 1
  ret { i32, ptr } %.fca.1.insert
}